(lp0
S'embroider.py'
p1
aS'--id=rect3'
p2
aS'--id=rect5'
p3
aS'--id=rect7'
p4
aS'--id=rect9'
p5
aS'--id=rect11'
p6
aS'--id=rect13'
p7
aS'--id=rect15'
p8
aS'--id=rect17'
p9
aS'--id=rect19'
p10
aS'--id=rect21'
p11
aS'--id=rect23'
p12
aS'--id=rect25'
p13
aS'--id=rect27'
p14
aS'--id=rect29'
p15
aS'--id=rect31'
p16
aS'--id=rect33'
p17
aS'--id=rect35'
p18
aS'--id=rect37'
p19
aS'--id=rect39'
p20
aS'--id=rect41'
p21
aS'--id=rect43'
p22
aS'--id=rect45'
p23
aS'--id=rect47'
p24
aS'--id=rect49'
p25
aS'--id=rect51'
p26
aS'--id=rect53'
p27
aS'--id=rect55'
p28
aS'--id=rect57'
p29
aS'--id=rect59'
p30
aS'--id=rect61'
p31
aS'--id=rect63'
p32
aS'--id=rect65'
p33
aS'--id=rect67'
p34
aS'--id=rect69'
p35
aS'--id=rect71'
p36
aS'--id=rect73'
p37
aS'--id=rect75'
p38
aS'--id=rect77'
p39
aS'--id=rect79'
p40
aS'--id=rect81'
p41
aS'--id=rect83'
p42
aS'--id=rect85'
p43
aS'--id=rect87'
p44
aS'--id=rect89'
p45
aS'--id=rect91'
p46
aS'--id=rect93'
p47
aS'--id=rect95'
p48
aS'--row_spacing_mm=0.40000000596046448'
p49
aS'--max_stitch_len_mm=3'
p50
aS'--preserve_order=false'
p51
aS'/var/folders/23/ysjrzdlj50x8dntb627xfm9m0000gn/T/ink_ext_XXXXXX.svgJKDPEZ'
p52
a.